; Function Attrs: mustprogress uwtable
define hidden void @_ZNK6google8protobuf8compiler3cpp18FieldGeneratorBase28GenerateAggregateInitializerEPNS0_2io7PrinterE(ptr nocapture noundef nonnull readonly align 8 dereferenceable(85) %this, ptr noundef %p) unnamed_addr #3 align 2 personality ptr @__gxx_personality_v0 {
entry:
  %descriptor_ = getelementptr inbounds i8, ptr %this, i64 8
  %0 = load ptr, ptr %descriptor_, align 8
  %options_ = getelementptr inbounds i8, ptr %this, i64 16
  %1 = load ptr, ptr %options_, align 8
  %call = tail call noundef zeroext i1 @_ZN6google8protobuf8compiler3cpp11ShouldSplitEPKNS0_15FieldDescriptorERKNS2_7OptionsE(ptr noundef %0, ptr noundef nonnull align 8 dereferenceable(206) %1)
  br i1 %call, label %if.then, label %if.else

if.then:                                          ; preds = %entry
  tail call void @_ZN6google8protobuf2io7Printer4EmitEN4absl12lts_202308024SpanIKNS2_3SubEEESt17basic_string_viewIcSt11char_traitsIcEENS2_14SourceLocationE(ptr noundef nonnull align 8 dereferenceable(256) %p, ptr null, i64 0, i64 51, ptr nonnull @.str.44)
  br label %if.end

if.else:                                          ; preds = %entry
  tail call void @_ZN6google8protobuf2io7Printer4EmitEN4absl12lts_202308024SpanIKNS2_3SubEEESt17basic_string_viewIcSt11char_traitsIcEENS2_14SourceLocationE(ptr noundef nonnull align 8 dereferenceable(256) %p, ptr null, i64 0, i64 37, ptr nonnull @.str.45)
  br label %if.end

if.end:                                           ; preds = %if.else, %if.then
  ret void
}